; Function Attrs: mustprogress uwtable
define noundef nonnull align 8 dereferenceable(91) ptr @_ZN6duckdb13ParquetReader8GetGroupERNS_22ParquetReaderScanStateE(ptr noundef nonnull align 8 dereferenceable(560) %0, ptr noundef nonnull align 8 dereferenceable(232) %1) local_unnamed_addr #3 align 2 {
  %3 = getelementptr inbounds nuw i8, ptr %0, i64 72
  %4 = tail call noundef ptr @_ZNK6duckdb10shared_ptrINS_24ParquetFileMetadataCacheELb1EEptEv(ptr noundef nonnull align 8 dereferenceable(16) %3)
  %5 = getelementptr inbounds nuw i8, ptr %4, i64 8
  %6 = load ptr, ptr %5, align 8, !tbaa !304
  %7 = getelementptr inbounds nuw i8, ptr %6, i64 48
  %8 = getelementptr inbounds nuw i8, ptr %1, i64 24
  %9 = load i64, ptr %8, align 8, !tbaa !563
  %10 = tail call noundef nonnull align 8 dereferenceable(8) ptr @_ZN6duckdb6vectorImLb1EEixEm(ptr noundef nonnull align 8 dereferenceable(24) %1, i64 noundef %9)
  %11 = load i64, ptr %10, align 8, !tbaa !301
  %12 = tail call noundef nonnull align 8 dereferenceable(91) ptr @_ZNK6duckdb6vectorIN14duckdb_parquet8RowGroupELb1EEixEm(ptr noundef nonnull align 8 dereferenceable(24) %7, i64 noundef %11)
  ret ptr %12
}